target datalayout = "e-m:e-p270:32:32-p271:32:32-p272:64:64-i64:64-i128:128-f80:128-n8:16:32:64-S128"
target triple = "x86_64-pc-linux-gnu"

%"class.std::__cxx11::basic_string" = type { %"struct.std::__cxx11::basic_string<char>::_Alloc_hider", i64, %union.anon }
%"struct.std::__cxx11::basic_string<char>::_Alloc_hider" = type { ptr }
%union.anon = type { i64, [8 x i8] }
%struct.aiScene = type { i32, ptr, i32, ptr, i32, ptr, i32, ptr, i32, ptr, i32, ptr, i32, ptr, ptr, %struct.aiString, i32, ptr, ptr }
%struct.aiString = type { i32, [1024 x i8] }
%struct.aiMetadata = type { i32, ptr, ptr }
%struct.aiMetadataEntry = type { i32, ptr }

; Function Attrs: inlinehint mustprogress nounwind uwtable
define linkonce_odr hidden noundef i32 @_Z9GetAiTypei(i32 noundef %0) #6 comdat {
  %2 = alloca i32, align 4
  store i32 %0, ptr %2, align 4
  ret i32 1
}

; Function Attrs: mustprogress nounwind uwtable
define available_externally noundef ptr @_ZNKSt7__cxx1112basic_stringIcSt11char_traitsIcESaIcEE7_M_dataEv(ptr noundef nonnull align 8 dereferenceable(32) %0) #2 align 2 {
  %2 = alloca ptr, align 8
  store ptr %0, ptr %2, align 8
  %3 = load ptr, ptr %2, align 8
  %4 = getelementptr inbounds nuw %"class.std::__cxx11::basic_string", ptr %3, i32 0, i32 0
  %5 = getelementptr inbounds nuw %"struct.std::__cxx11::basic_string<char>::_Alloc_hider", ptr %4, i32 0, i32 0
  %6 = load ptr, ptr %5, align 8
  ret ptr %6
}

; Function Attrs: inlinehint mustprogress uwtable
define linkonce_odr hidden noundef zeroext i1 @_ZNK10aiMetadata3GetIiEEbjRT_(ptr noundef nonnull align 8 dereferenceable(24) %0, i32 noundef %1, ptr noundef nonnull align 4 dereferenceable(4) %2) #8 comdat align 2 {
  %4 = alloca i1, align 1
  %5 = alloca ptr, align 8
  %6 = alloca i32, align 4
  %7 = alloca ptr, align 8
  store ptr %0, ptr %5, align 8
  store i32 %1, ptr %6, align 4
  store ptr %2, ptr %7, align 8
  %8 = load ptr, ptr %5, align 8
  %9 = load i32, ptr %6, align 4
  %10 = getelementptr inbounds nuw %struct.aiMetadata, ptr %8, i32 0, i32 0
  %11 = load i32, ptr %10, align 8
  %12 = icmp uge i32 %9, %11
  br i1 %12, label %13, label %14

13:                                               ; preds = %3
  store i1 false, ptr %4, align 1
  br label %37

14:                                               ; preds = %3
  %15 = load ptr, ptr %7, align 8
  %16 = load i32, ptr %15, align 4
  %17 = call noundef i32 @_Z9GetAiTypei(i32 noundef %16)
  %18 = getelementptr inbounds nuw %struct.aiMetadata, ptr %8, i32 0, i32 2
  %19 = load ptr, ptr %18, align 8
  %20 = load i32, ptr %6, align 4
  %21 = zext i32 %20 to i64
  %22 = getelementptr inbounds nuw %struct.aiMetadataEntry, ptr %19, i64 %21
  %23 = getelementptr inbounds nuw %struct.aiMetadataEntry, ptr %22, i32 0, i32 0
  %24 = load i32, ptr %23, align 8
  %25 = icmp ne i32 %17, %24
  br i1 %25, label %26, label %27

26:                                               ; preds = %14
  store i1 false, ptr %4, align 1
  br label %37

27:                                               ; preds = %14
  %28 = getelementptr inbounds nuw %struct.aiMetadata, ptr %8, i32 0, i32 2
  %29 = load ptr, ptr %28, align 8
  %30 = load i32, ptr %6, align 4
  %31 = zext i32 %30 to i64
  %32 = getelementptr inbounds nuw %struct.aiMetadataEntry, ptr %29, i64 %31
  %33 = getelementptr inbounds nuw %struct.aiMetadataEntry, ptr %32, i32 0, i32 1
  %34 = load ptr, ptr %33, align 8
  %35 = load i32, ptr %34, align 4
  %36 = load ptr, ptr %7, align 8
  store i32 %35, ptr %36, align 4
  store i1 true, ptr %4, align 1
  br label %37

37:                                               ; preds = %27, %26, %13
  %38 = load i1, ptr %4, align 1
  ret i1 %38
}

; Function Attrs: mustprogress nounwind uwtable
define linkonce_odr hidden noundef zeroext i1 @_ZNK8aiStringeqERKS_(ptr noundef nonnull align 4 dereferenceable(1028) %0, ptr noundef nonnull align 4 dereferenceable(1028) %1) #2 comdat align 2 {
  %3 = alloca i1, align 1
  %4 = alloca ptr, align 8
  %5 = alloca ptr, align 8
  store ptr %0, ptr %4, align 8
  store ptr %1, ptr %5, align 8
  %6 = load ptr, ptr %4, align 8
  %7 = getelementptr inbounds nuw %struct.aiString, ptr %6, i32 0, i32 0
  %8 = load i32, ptr %7, align 4
  %9 = load ptr, ptr %5, align 8
  %10 = getelementptr inbounds nuw %struct.aiString, ptr %9, i32 0, i32 0
  %11 = load i32, ptr %10, align 4
  %12 = icmp eq i32 %8, %11
  br i1 %12, label %13, label %24

13:                                               ; preds = %2
  %14 = getelementptr inbounds nuw %struct.aiString, ptr %6, i32 0, i32 1
  %15 = getelementptr inbounds [1024 x i8], ptr %14, i64 0, i64 0
  %16 = load ptr, ptr %5, align 8
  %17 = getelementptr inbounds nuw %struct.aiString, ptr %16, i32 0, i32 1
  %18 = getelementptr inbounds [1024 x i8], ptr %17, i64 0, i64 0
  %19 = getelementptr inbounds nuw %struct.aiString, ptr %6, i32 0, i32 0
  %20 = load i32, ptr %19, align 4
  %21 = zext i32 %20 to i64
  %22 = call i32 @memcmp(ptr noundef %15, ptr noundef %18, i64 noundef %21) #29
  %23 = icmp eq i32 %22, 0
  store i1 %23, ptr %3, align 1
  br label %25

24:                                               ; preds = %2
  store i1 false, ptr %3, align 1
  br label %25

25:                                               ; preds = %24, %13
  %26 = load i1, ptr %3, align 1
  ret i1 %26
}

; Function Attrs: mustprogress nounwind uwtable
define available_externally noundef ptr @_ZNKSt7__cxx1112basic_stringIcSt11char_traitsIcESaIcEE5c_strEv(ptr noundef nonnull align 8 dereferenceable(32) %0) #2 align 2 {
  %2 = alloca ptr, align 8
  store ptr %0, ptr %2, align 8
  %3 = load ptr, ptr %2, align 8
  %4 = call noundef ptr @_ZNKSt7__cxx1112basic_stringIcSt11char_traitsIcESaIcEE7_M_dataEv(ptr noundef nonnull align 8 dereferenceable(32) %3)
  ret ptr %4
}

; Function Attrs: mustprogress nounwind uwtable
define available_externally noundef i64 @_ZNKSt7__cxx1112basic_stringIcSt11char_traitsIcESaIcEE6lengthEv(ptr noundef nonnull align 8 dereferenceable(32) %0) #2 align 2 {
  %2 = alloca ptr, align 8
  store ptr %0, ptr %2, align 8
  %3 = load ptr, ptr %2, align 8
  %4 = getelementptr inbounds nuw %"class.std::__cxx11::basic_string", ptr %3, i32 0, i32 1
  %5 = load i64, ptr %4, align 8
  ret i64 %5
}

; Function Attrs: inlinehint mustprogress uwtable
define linkonce_odr hidden noundef zeroext i1 @_ZNK10aiMetadata3GetIiEEbRK8aiStringRT_(ptr noundef nonnull align 8 dereferenceable(24) %0, ptr noundef nonnull align 4 dereferenceable(1028) %1, ptr noundef nonnull align 4 dereferenceable(4) %2) #8 comdat align 2 {
  %4 = alloca i1, align 1
  %5 = alloca ptr, align 8
  %6 = alloca ptr, align 8
  %7 = alloca ptr, align 8
  %8 = alloca i32, align 4
  %9 = alloca i32, align 4
  store ptr %0, ptr %5, align 8
  store ptr %1, ptr %6, align 8
  store ptr %2, ptr %7, align 8
  %10 = load ptr, ptr %5, align 8
  call void @llvm.lifetime.start.p0(i64 4, ptr %8) #4
  store i32 0, ptr %8, align 4
  br label %11

11:                                               ; preds = %30, %3
  %12 = load i32, ptr %8, align 4
  %13 = getelementptr inbounds nuw %struct.aiMetadata, ptr %10, i32 0, i32 0
  %14 = load i32, ptr %13, align 8
  %15 = icmp ult i32 %12, %14
  br i1 %15, label %17, label %16

16:                                               ; preds = %11
  store i32 2, ptr %9, align 4
  br label %33

17:                                               ; preds = %11
  %18 = getelementptr inbounds nuw %struct.aiMetadata, ptr %10, i32 0, i32 1
  %19 = load ptr, ptr %18, align 8
  %20 = load i32, ptr %8, align 4
  %21 = zext i32 %20 to i64
  %22 = getelementptr inbounds nuw %struct.aiString, ptr %19, i64 %21
  %23 = load ptr, ptr %6, align 8
  %24 = call noundef zeroext i1 @_ZNK8aiStringeqERKS_(ptr noundef nonnull align 4 dereferenceable(1028) %22, ptr noundef nonnull align 4 dereferenceable(1028) %23)
  br i1 %24, label %25, label %29

25:                                               ; preds = %17
  %26 = load i32, ptr %8, align 4
  %27 = load ptr, ptr %7, align 8
  %28 = call noundef zeroext i1 @_ZNK10aiMetadata3GetIiEEbjRT_(ptr noundef nonnull align 8 dereferenceable(24) %10, i32 noundef %26, ptr noundef nonnull align 4 dereferenceable(4) %27)
  store i1 %28, ptr %4, align 1
  store i32 1, ptr %9, align 4
  br label %33

29:                                               ; preds = %17
  br label %30

30:                                               ; preds = %29
  %31 = load i32, ptr %8, align 4
  %32 = add i32 %31, 1
  store i32 %32, ptr %8, align 4
  br label %11, !llvm.loop !83

33:                                               ; preds = %25, %16
  call void @llvm.lifetime.end.p0(i64 4, ptr %8) #4
  %34 = load i32, ptr %9, align 4
  switch i32 %34, label %38 [
    i32 2, label %35
    i32 1, label %36
  ]

35:                                               ; preds = %33
  store i1 false, ptr %4, align 1
  br label %36

36:                                               ; preds = %35, %33
  %37 = load i1, ptr %4, align 1
  ret i1 %37

38:                                               ; preds = %33
  unreachable
}

; Function Attrs: mustprogress nounwind uwtable
define linkonce_odr hidden void @_ZN8aiStringC2ERKNSt7__cxx1112basic_stringIcSt11char_traitsIcESaIcEEE(ptr noundef nonnull align 4 dereferenceable(1028) %0, ptr noundef nonnull align 8 dereferenceable(32) %1) unnamed_addr #2 comdat align 2 {
  %3 = alloca ptr, align 8
  %4 = alloca ptr, align 8
  store ptr %0, ptr %3, align 8
  store ptr %1, ptr %4, align 8
  %5 = load ptr, ptr %3, align 8
  %6 = getelementptr inbounds nuw %struct.aiString, ptr %5, i32 0, i32 0
  %7 = load ptr, ptr %4, align 8
  %8 = call noundef i64 @_ZNKSt7__cxx1112basic_stringIcSt11char_traitsIcESaIcEE6lengthEv(ptr noundef nonnull align 8 dereferenceable(32) %7) #4
  %9 = trunc i64 %8 to i32
  store i32 %9, ptr %6, align 4
  %10 = getelementptr inbounds nuw %struct.aiString, ptr %5, i32 0, i32 1
  call void @llvm.memset.p0.i64(ptr align 4 %10, i8 0, i64 1024, i1 false)
  %11 = getelementptr inbounds nuw %struct.aiString, ptr %5, i32 0, i32 0
  %12 = load i32, ptr %11, align 4
  %13 = zext i32 %12 to i64
  %14 = icmp uge i64 %13, 1024
  br i1 %14, label %15, label %16

15:                                               ; preds = %2
  br label %20

16:                                               ; preds = %2
  %17 = getelementptr inbounds nuw %struct.aiString, ptr %5, i32 0, i32 0
  %18 = load i32, ptr %17, align 4
  %19 = zext i32 %18 to i64
  br label %20

20:                                               ; preds = %16, %15
  %21 = phi i64 [ 1023, %15 ], [ %19, %16 ]
  %22 = trunc i64 %21 to i32
  %23 = getelementptr inbounds nuw %struct.aiString, ptr %5, i32 0, i32 0
  store i32 %22, ptr %23, align 4
  %24 = getelementptr inbounds nuw %struct.aiString, ptr %5, i32 0, i32 1
  %25 = getelementptr inbounds [1024 x i8], ptr %24, i64 0, i64 0
  %26 = load ptr, ptr %4, align 8
  %27 = call noundef ptr @_ZNKSt7__cxx1112basic_stringIcSt11char_traitsIcESaIcEE5c_strEv(ptr noundef nonnull align 8 dereferenceable(32) %26) #4
  %28 = getelementptr inbounds nuw %struct.aiString, ptr %5, i32 0, i32 0
  %29 = load i32, ptr %28, align 4
  %30 = zext i32 %29 to i64
  call void @llvm.memcpy.p0.p0.i64(ptr align 4 %25, ptr align 1 %27, i64 %30, i1 false)
  %31 = getelementptr inbounds nuw %struct.aiString, ptr %5, i32 0, i32 1
  %32 = getelementptr inbounds nuw %struct.aiString, ptr %5, i32 0, i32 0
  %33 = load i32, ptr %32, align 4
  %34 = zext i32 %33 to i64
  %35 = getelementptr inbounds nuw [1024 x i8], ptr %31, i64 0, i64 %34
  store i8 0, ptr %35, align 1
  ret void
}

; Function Attrs: inlinehint mustprogress uwtable
define linkonce_odr hidden noundef zeroext i1 @_ZNK10aiMetadata3GetIiEEbRKNSt7__cxx1112basic_stringIcSt11char_traitsIcESaIcEEERT_(ptr noundef nonnull align 8 dereferenceable(24) %0, ptr noundef nonnull align 8 dereferenceable(32) %1, ptr noundef nonnull align 4 dereferenceable(4) %2) #8 comdat align 2 {
  %4 = alloca ptr, align 8
  %5 = alloca ptr, align 8
  %6 = alloca ptr, align 8
  %7 = alloca %struct.aiString, align 4
  store ptr %0, ptr %4, align 8
  store ptr %1, ptr %5, align 8
  store ptr %2, ptr %6, align 8
  %8 = load ptr, ptr %4, align 8
  call void @llvm.lifetime.start.p0(i64 1028, ptr %7) #4
  %9 = load ptr, ptr %5, align 8
  call void @_ZN8aiStringC2ERKNSt7__cxx1112basic_stringIcSt11char_traitsIcESaIcEEE(ptr noundef nonnull align 4 dereferenceable(1028) %7, ptr noundef nonnull align 8 dereferenceable(32) %9)
  %10 = load ptr, ptr %6, align 8
  %11 = call noundef zeroext i1 @_ZNK10aiMetadata3GetIiEEbRK8aiStringRT_(ptr noundef nonnull align 8 dereferenceable(24) %8, ptr noundef nonnull align 4 dereferenceable(1028) %7, ptr noundef nonnull align 4 dereferenceable(4) %10)
  call void @llvm.lifetime.end.p0(i64 1028, ptr %7) #4
  ret i1 %11
}

; Function Attrs: mustprogress uwtable
define hidden void @_Z12WritePropIntPK7aiSceneRN6Assimp3FBX4NodeERKNSt7__cxx1112basic_stringIcSt11char_traitsIcESaIcEEEi(ptr noundef %0, ptr noundef nonnull align 8 dereferenceable(112) %1, ptr noundef nonnull align 8 dereferenceable(32) %2, i32 noundef %3) #3 {
  %5 = alloca ptr, align 8
  %6 = alloca ptr, align 8
  %7 = alloca ptr, align 8
  %8 = alloca i32, align 4
  %9 = alloca i32, align 4
  store ptr %0, ptr %5, align 8
  store ptr %1, ptr %6, align 8
  store ptr %2, ptr %7, align 8
  store i32 %3, ptr %8, align 4
  call void @llvm.lifetime.start.p0(i64 4, ptr %9) #4
  %10 = load ptr, ptr %5, align 8
  %11 = getelementptr inbounds nuw %struct.aiScene, ptr %10, i32 0, i32 14
  %12 = load ptr, ptr %11, align 8
  %13 = icmp ne ptr %12, null
  br i1 %13, label %14, label %24

14:                                               ; preds = %4
  %15 = load ptr, ptr %5, align 8
  %16 = getelementptr inbounds nuw %struct.aiScene, ptr %15, i32 0, i32 14
  %17 = load ptr, ptr %16, align 8
  %18 = load ptr, ptr %7, align 8
  %19 = call noundef zeroext i1 @_ZNK10aiMetadata3GetIiEEbRKNSt7__cxx1112basic_stringIcSt11char_traitsIcESaIcEEERT_(ptr noundef nonnull align 8 dereferenceable(24) %17, ptr noundef nonnull align 8 dereferenceable(32) %18, ptr noundef nonnull align 4 dereferenceable(4) %9)
  br i1 %19, label %20, label %24

20:                                               ; preds = %14
  %21 = load ptr, ptr %6, align 8
  %22 = load ptr, ptr %7, align 8
  %23 = load i32, ptr %9, align 4
  call void @_ZN6Assimp3FBX4Node9AddP70intERKNSt7__cxx1112basic_stringIcSt11char_traitsIcESaIcEEEi(ptr noundef nonnull align 8 dereferenceable(112) %21, ptr noundef nonnull align 8 dereferenceable(32) %22, i32 noundef %23)
  br label %28

24:                                               ; preds = %14, %4
  %25 = load ptr, ptr %6, align 8
  %26 = load ptr, ptr %7, align 8
  %27 = load i32, ptr %8, align 4
  call void @_ZN6Assimp3FBX4Node9AddP70intERKNSt7__cxx1112basic_stringIcSt11char_traitsIcESaIcEEEi(ptr noundef nonnull align 8 dereferenceable(112) %25, ptr noundef nonnull align 8 dereferenceable(32) %26, i32 noundef %27)
  br label %28

28:                                               ; preds = %24, %20
  call void @llvm.lifetime.end.p0(i64 4, ptr %9) #4
  ret void
}